; ModuleID = '7/189.c'
source_filename = "7/189.c"
target datalayout = "e-m:e-p270:32:32-p271:32:32-p272:64:64-i64:64-f80:128-n8:16:32:64-S128"
target triple = "x86_64-pc-linux-gnu"

@.str = private unnamed_addr constant [9 x i8] c"%s\0A%s\0A%s\00", align 1
@.str.1 = private unnamed_addr constant [3 x i8] c"%s\00", align 1

; Function Attrs: noinline nounwind uwtable
define dso_local i32 @main(i32 %0, i8** %1) #0 {
  %3 = alloca i32, align 4
  %4 = alloca i32, align 4
  %5 = alloca i8**, align 8
  %6 = alloca [256 x i8], align 16
  %7 = alloca [256 x i8], align 16
  %8 = alloca [256 x i8], align 16
  %9 = alloca [256 x i8], align 16
  %10 = alloca [256 x i8], align 16
  %11 = alloca i32, align 4
  %12 = alloca i32, align 4
  %13 = alloca i32, align 4
  store i32 0, i32* %3, align 4
  store i32 %0, i32* %4, align 4
  store i8** %1, i8*** %5, align 8
  %14 = bitcast [256 x i8]* %9 to i8*
  call void @llvm.memset.p0i8.i64(i8* align 16 %14, i8 0, i64 256, i1 false)
  %15 = bitcast [256 x i8]* %10 to i8*
  call void @llvm.memset.p0i8.i64(i8* align 16 %15, i8 0, i64 256, i1 false)
  %16 = getelementptr inbounds [256 x i8], [256 x i8]* %6, i64 0, i64 0
  %17 = getelementptr inbounds [256 x i8], [256 x i8]* %7, i64 0, i64 0
  %18 = getelementptr inbounds [256 x i8], [256 x i8]* %8, i64 0, i64 0
  %19 = call i32 (i8*, ...) @__isoc99_scanf(i8* getelementptr inbounds ([9 x i8], [9 x i8]* @.str, i64 0, i64 0), i8* %16, i8* %17, i8* %18)
  %20 = getelementptr inbounds [256 x i8], [256 x i8]* %6, i64 0, i64 0
  %21 = call i64 @strlen(i8* %20) #5
  %22 = trunc i64 %21 to i32
  store i32 %22, i32* %11, align 4
  %23 = getelementptr inbounds [256 x i8], [256 x i8]* %7, i64 0, i64 0
  %24 = call i64 @strlen(i8* %23) #5
  %25 = trunc i64 %24 to i32
  store i32 %25, i32* %12, align 4
  store i32 0, i32* %13, align 4
  br label %26

26:                                               ; preds = %66, %2
  %27 = load i32, i32* %13, align 4
  %28 = load i32, i32* %11, align 4
  %29 = load i32, i32* %12, align 4
  %30 = sub nsw i32 %28, %29
  %31 = icmp sle i32 %27, %30
  br i1 %31, label %32, label %69

32:                                               ; preds = %26
  %33 = getelementptr inbounds [256 x i8], [256 x i8]* %9, i64 0, i64 0
  %34 = getelementptr inbounds [256 x i8], [256 x i8]* %6, i64 0, i64 0
  %35 = load i32, i32* %13, align 4
  %36 = sext i32 %35 to i64
  %37 = getelementptr inbounds i8, i8* %34, i64 %36
  %38 = load i32, i32* %12, align 4
  %39 = sext i32 %38 to i64
  %40 = call i8* @strncpy(i8* %33, i8* %37, i64 %39) #6
  %41 = getelementptr inbounds [256 x i8], [256 x i8]* %9, i64 0, i64 0
  %42 = getelementptr inbounds [256 x i8], [256 x i8]* %7, i64 0, i64 0
  %43 = call i32 @strcmp(i8* %41, i8* %42) #5
  %44 = icmp ne i32 %43, 0
  br i1 %44, label %65, label %45

45:                                               ; preds = %32
  %46 = getelementptr inbounds [256 x i8], [256 x i8]* %10, i64 0, i64 0
  %47 = getelementptr inbounds [256 x i8], [256 x i8]* %6, i64 0, i64 0
  %48 = load i32, i32* %13, align 4
  %49 = sext i32 %48 to i64
  %50 = call i8* @strncpy(i8* %46, i8* %47, i64 %49) #6
  %51 = getelementptr inbounds [256 x i8], [256 x i8]* %10, i64 0, i64 0
  %52 = getelementptr inbounds [256 x i8], [256 x i8]* %8, i64 0, i64 0
  %53 = call i8* @strcat(i8* %51, i8* %52) #6
  %54 = getelementptr inbounds [256 x i8], [256 x i8]* %10, i64 0, i64 0
  %55 = getelementptr inbounds [256 x i8], [256 x i8]* %6, i64 0, i64 0
  %56 = load i32, i32* %13, align 4
  %57 = sext i32 %56 to i64
  %58 = getelementptr inbounds i8, i8* %55, i64 %57
  %59 = load i32, i32* %12, align 4
  %60 = sext i32 %59 to i64
  %61 = getelementptr inbounds i8, i8* %58, i64 %60
  %62 = call i8* @strcat(i8* %54, i8* %61) #6
  %63 = getelementptr inbounds [256 x i8], [256 x i8]* %10, i64 0, i64 0
  %64 = call i32 (i8*, ...) @printf(i8* getelementptr inbounds ([3 x i8], [3 x i8]* @.str.1, i64 0, i64 0), i8* %63)
  store i32 0, i32* %3, align 4
  br label %72

65:                                               ; preds = %32
  br label %66

66:                                               ; preds = %65
  %67 = load i32, i32* %13, align 4
  %68 = add nsw i32 %67, 1
  store i32 %68, i32* %13, align 4
  br label %26

69:                                               ; preds = %26
  %70 = getelementptr inbounds [256 x i8], [256 x i8]* %6, i64 0, i64 0
  %71 = call i32 (i8*, ...) @printf(i8* getelementptr inbounds ([3 x i8], [3 x i8]* @.str.1, i64 0, i64 0), i8* %70)
  store i32 0, i32* %3, align 4
  br label %72

72:                                               ; preds = %69, %45
  %73 = load i32, i32* %3, align 4
  ret i32 %73
}

; Function Attrs: argmemonly nounwind willreturn
declare void @llvm.memset.p0i8.i64(i8* nocapture writeonly, i8, i64, i1 immarg) #1

declare dso_local i32 @__isoc99_scanf(i8*, ...) #2

; Function Attrs: nounwind readonly
declare dso_local i64 @strlen(i8*) #3

; Function Attrs: nounwind
declare dso_local i8* @strncpy(i8*, i8*, i64) #4

; Function Attrs: nounwind readonly
declare dso_local i32 @strcmp(i8*, i8*) #3

; Function Attrs: nounwind
declare dso_local i8* @strcat(i8*, i8*) #4

declare dso_local i32 @printf(i8*, ...) #2


!llvm.module.flags = !{!0}
!llvm.ident = !{!1}

!0 = !{i32 1, !"wchar_size", i32 4}
!1 = !{!"clang version 10.0.0-4ubuntu1 "}
