; ModuleID = 'source-C-CXX/6/189.c'
source_filename = "source-C-CXX/6/189.c"
target datalayout = "e-m:e-p270:32:32-p271:32:32-p272:64:64-i64:64-f80:128-n8:16:32:64-S128"
target triple = "x86_64-pc-linux-gnu"

@.str = private unnamed_addr constant [9 x i8] c"%s\0A%s\0A%s\00", align 1
@.str.1 = private unnamed_addr constant [3 x i8] c"%s\00", align 1

; Function Attrs: nofree nounwind sspstrong uwtable
define dso_local i32 @main(i32 %0, i8** nocapture readnone %1) local_unnamed_addr #0 {
  %3 = alloca [256 x i8], align 16
  %4 = alloca [256 x i8], align 16
  %5 = alloca [256 x i8], align 16
  %6 = alloca [256 x i8], align 16
  %7 = alloca [256 x i8], align 16
  %8 = getelementptr inbounds [256 x i8], [256 x i8]* %3, i64 0, i64 0
  call void @llvm.lifetime.start.p0i8(i64 256, i8* nonnull %8) #6
  %9 = getelementptr inbounds [256 x i8], [256 x i8]* %4, i64 0, i64 0
  call void @llvm.lifetime.start.p0i8(i64 256, i8* nonnull %9) #6
  %10 = getelementptr inbounds [256 x i8], [256 x i8]* %5, i64 0, i64 0
  call void @llvm.lifetime.start.p0i8(i64 256, i8* nonnull %10) #6
  %11 = getelementptr inbounds [256 x i8], [256 x i8]* %6, i64 0, i64 0
  call void @llvm.lifetime.start.p0i8(i64 256, i8* nonnull %11) #6
  call void @llvm.memset.p0i8.i64(i8* noundef nonnull align 16 dereferenceable(256) %11, i8 0, i64 256, i1 false)
  %12 = getelementptr inbounds [256 x i8], [256 x i8]* %7, i64 0, i64 0
  call void @llvm.lifetime.start.p0i8(i64 256, i8* nonnull %12) #6
  call void @llvm.memset.p0i8.i64(i8* noundef nonnull align 16 dereferenceable(256) %12, i8 0, i64 256, i1 false)
  %13 = call i32 (i8*, ...) @__isoc99_scanf(i8* getelementptr inbounds ([9 x i8], [9 x i8]* @.str, i64 0, i64 0), i8* nonnull %8, i8* nonnull %9, i8* nonnull %10)
  %14 = call i64 @strlen(i8* noundef nonnull %8) #7
  %15 = trunc i64 %14 to i32
  %16 = call i64 @strlen(i8* noundef nonnull %9) #7
  %17 = trunc i64 %16 to i32
  %18 = shl i64 %16, 32
  %19 = ashr exact i64 %18, 32
  %20 = icmp slt i32 %15, %17
  br i1 %20, label %40, label %21

21:                                               ; preds = %2
  %22 = add i64 %14, 1
  %23 = sub i64 %22, %16
  %24 = and i64 %23, 4294967295
  br label %25

25:                                               ; preds = %21, %37
  %26 = phi i64 [ 0, %21 ], [ %38, %37 ]
  %27 = getelementptr inbounds [256 x i8], [256 x i8]* %3, i64 0, i64 %26
  %28 = call i8* @strncpy(i8* noundef nonnull %11, i8* nonnull %27, i64 %19) #6
  %29 = call i32 @strcmp(i8* noundef nonnull %11, i8* noundef nonnull %9) #7
  %30 = icmp eq i32 %29, 0
  br i1 %30, label %31, label %37

31:                                               ; preds = %25
  %32 = and i64 %26, 4294967295
  %33 = call i8* @strncpy(i8* noundef nonnull %12, i8* nonnull %8, i64 %32) #6
  %34 = call i8* @strcat(i8* noundef nonnull %12, i8* noundef nonnull %10) #6
  %35 = getelementptr inbounds i8, i8* %27, i64 %19
  %36 = call i8* @strcat(i8* noundef nonnull %12, i8* noundef nonnull %35) #6
  br label %40

37:                                               ; preds = %25
  %38 = add nuw nsw i64 %26, 1
  %39 = icmp eq i64 %38, %24
  br i1 %39, label %40, label %25, !llvm.loop !5

40:                                               ; preds = %37, %2, %31
  %41 = phi i8* [ %12, %31 ], [ %8, %2 ], [ %8, %37 ]
  %42 = call i32 (i8*, ...) @printf(i8* nonnull dereferenceable(1) getelementptr inbounds ([3 x i8], [3 x i8]* @.str.1, i64 0, i64 0), i8* nonnull %41)
  call void @llvm.lifetime.end.p0i8(i64 256, i8* nonnull %12) #6
  call void @llvm.lifetime.end.p0i8(i64 256, i8* nonnull %11) #6
  call void @llvm.lifetime.end.p0i8(i64 256, i8* nonnull %10) #6
  call void @llvm.lifetime.end.p0i8(i64 256, i8* nonnull %9) #6
  call void @llvm.lifetime.end.p0i8(i64 256, i8* nonnull %8) #6
  ret i32 0
}

; Function Attrs: argmemonly mustprogress nofree nosync nounwind willreturn
declare void @llvm.lifetime.start.p0i8(i64 immarg, i8* nocapture) #1

; Function Attrs: argmemonly mustprogress nofree nounwind willreturn writeonly
declare void @llvm.memset.p0i8.i64(i8* nocapture writeonly, i8, i64, i1 immarg) #2

; Function Attrs: nofree nounwind
declare noundef i32 @__isoc99_scanf(i8* nocapture noundef readonly, ...) local_unnamed_addr #3

; Function Attrs: argmemonly mustprogress nofree nounwind readonly willreturn
declare i64 @strlen(i8* nocapture) local_unnamed_addr #4

; Function Attrs: argmemonly mustprogress nofree nounwind willreturn
declare i8* @strncpy(i8* noalias returned writeonly, i8* noalias nocapture readonly, i64) local_unnamed_addr #5

; Function Attrs: argmemonly mustprogress nofree nounwind readonly willreturn
declare i32 @strcmp(i8* nocapture, i8* nocapture) local_unnamed_addr #4

; Function Attrs: argmemonly mustprogress nofree nounwind willreturn
declare i8* @strcat(i8* noalias returned, i8* noalias nocapture readonly) local_unnamed_addr #5

; Function Attrs: nofree nounwind
declare noundef i32 @printf(i8* nocapture noundef readonly, ...) local_unnamed_addr #3

; Function Attrs: argmemonly mustprogress nofree nosync nounwind willreturn
declare void @llvm.lifetime.end.p0i8(i64 immarg, i8* nocapture) #1


!llvm.module.flags = !{!0, !1, !2, !3}
!llvm.ident = !{!4}

!0 = !{i32 1, !"wchar_size", i32 4}
!1 = !{i32 7, !"PIC Level", i32 2}
!2 = !{i32 7, !"PIE Level", i32 2}
!3 = !{i32 7, !"uwtable", i32 1}
!4 = !{!"clang version 13.0.0"}
!5 = distinct !{!5, !6}
!6 = !{!"llvm.loop.mustprogress"}
